
slave.elf:     file format elf32-avr

Sections:
Idx Name          Size      VMA       LMA       File off  Algn
  0 .text         00000a88  00000000  00000000  00000094  2**1
                  CONTENTS, ALLOC, LOAD, READONLY, CODE
  1 .data         0000003a  00800060  00000a88  00000b1c  2**0
                  CONTENTS, ALLOC, LOAD, DATA
  2 .bss          00000037  0080009a  0080009a  00000b56  2**0
                  ALLOC
  3 .comment      00000030  00000000  00000000  00000b56  2**0
                  CONTENTS, READONLY
  4 .note.gnu.avr.deviceinfo 0000003c  00000000  00000000  00000b88  2**2
                  CONTENTS, READONLY
  5 .debug_info   000004e6  00000000  00000000  00000bc4  2**0
                  CONTENTS, READONLY, DEBUGGING
  6 .debug_abbrev 000004a3  00000000  00000000  000010aa  2**0
                  CONTENTS, READONLY, DEBUGGING
  7 .debug_line   00000116  00000000  00000000  0000154d  2**0
                  CONTENTS, READONLY, DEBUGGING
  8 .debug_str    00000196  00000000  00000000  00001663  2**0
                  CONTENTS, READONLY, DEBUGGING

Disassembly of section .text:

00000000 <__vectors>:
   0:	0c 94 2a 00 	jmp	0x54	; 0x54 <__ctors_end>
   4:	0c 94 47 00 	jmp	0x8e	; 0x8e <__bad_interrupt>
   8:	0c 94 47 00 	jmp	0x8e	; 0x8e <__bad_interrupt>
   c:	0c 94 47 00 	jmp	0x8e	; 0x8e <__bad_interrupt>
  10:	0c 94 47 00 	jmp	0x8e	; 0x8e <__bad_interrupt>
  14:	0c 94 47 00 	jmp	0x8e	; 0x8e <__bad_interrupt>
  18:	0c 94 6c 04 	jmp	0x8d8	; 0x8d8 <__vector_6>
  1c:	0c 94 1a 04 	jmp	0x834	; 0x834 <__vector_7>
  20:	0c 94 43 04 	jmp	0x886	; 0x886 <__vector_8>
  24:	0c 94 f1 03 	jmp	0x7e2	; 0x7e2 <__vector_9>
  28:	0c 94 47 00 	jmp	0x8e	; 0x8e <__bad_interrupt>
  2c:	0c 94 47 00 	jmp	0x8e	; 0x8e <__bad_interrupt>
  30:	0c 94 47 00 	jmp	0x8e	; 0x8e <__bad_interrupt>
  34:	0c 94 d6 04 	jmp	0x9ac	; 0x9ac <__vector_13>
  38:	0c 94 47 00 	jmp	0x8e	; 0x8e <__bad_interrupt>
  3c:	0c 94 ad 04 	jmp	0x95a	; 0x95a <__vector_15>
  40:	0c 94 47 00 	jmp	0x8e	; 0x8e <__bad_interrupt>
  44:	0c 94 47 00 	jmp	0x8e	; 0x8e <__bad_interrupt>
  48:	0c 94 47 00 	jmp	0x8e	; 0x8e <__bad_interrupt>
  4c:	0c 94 47 00 	jmp	0x8e	; 0x8e <__bad_interrupt>
  50:	0c 94 47 00 	jmp	0x8e	; 0x8e <__bad_interrupt>

00000054 <__ctors_end>:
  54:	11 24       	eor	r1, r1
  56:	1f be       	out	0x3f, r1	; 63
  58:	cf e5       	ldi	r28, 0x5F	; 95
  5a:	d8 e0       	ldi	r29, 0x08	; 8
  5c:	de bf       	out	0x3e, r29	; 62
  5e:	cd bf       	out	0x3d, r28	; 61

00000060 <__do_copy_data>:
  60:	10 e0       	ldi	r17, 0x00	; 0
  62:	a0 e6       	ldi	r26, 0x60	; 96
  64:	b0 e0       	ldi	r27, 0x00	; 0
  66:	e8 e8       	ldi	r30, 0x88	; 136
  68:	fa e0       	ldi	r31, 0x0A	; 10
  6a:	02 c0       	rjmp	.+4      	; 0x70 <__do_copy_data+0x10>
  6c:	05 90       	lpm	r0, Z+
  6e:	0d 92       	st	X+, r0
  70:	aa 39       	cpi	r26, 0x9A	; 154
  72:	b1 07       	cpc	r27, r17
  74:	d9 f7       	brne	.-10     	; 0x6c <__do_copy_data+0xc>

00000076 <__do_clear_bss>:
  76:	20 e0       	ldi	r18, 0x00	; 0
  78:	aa e9       	ldi	r26, 0x9A	; 154
  7a:	b0 e0       	ldi	r27, 0x00	; 0
  7c:	01 c0       	rjmp	.+2      	; 0x80 <.do_clear_bss_start>

0000007e <.do_clear_bss_loop>:
  7e:	1d 92       	st	X+, r1

00000080 <.do_clear_bss_start>:
  80:	a1 3d       	cpi	r26, 0xD1	; 209
  82:	b2 07       	cpc	r27, r18
  84:	e1 f7       	brne	.-8      	; 0x7e <.do_clear_bss_loop>
  86:	0e 94 c3 01 	call	0x386	; 0x386 <main>
  8a:	0c 94 42 05 	jmp	0xa84	; 0xa84 <_exit>

0000008e <__bad_interrupt>:
  8e:	0c 94 00 00 	jmp	0	; 0x0 <__vectors>

00000092 <resive_String>:
  92:	0e 94 ab 04 	call	0x956	; 0x956 <UART_ReceiveNoBlock>
  96:	e0 91 9a 00 	lds	r30, 0x009A	; 0x80009a <__data_end>
  9a:	8d 30       	cpi	r24, 0x0D	; 13
  9c:	41 f5       	brne	.+80     	; 0xee <resive_String+0x5c>
  9e:	f0 e0       	ldi	r31, 0x00	; 0
  a0:	e5 56       	subi	r30, 0x65	; 101
  a2:	ff 4f       	sbci	r31, 0xFF	; 255
  a4:	10 82       	st	Z, r1
  a6:	10 92 9a 00 	sts	0x009A, r1	; 0x80009a <__data_end>
  aa:	60 e0       	ldi	r22, 0x00	; 0
  ac:	81 e0       	ldi	r24, 0x01	; 1
  ae:	0e 94 a1 01 	call	0x342	; 0x342 <LCD_SetCursor>
  b2:	81 e6       	ldi	r24, 0x61	; 97
  b4:	90 e0       	ldi	r25, 0x00	; 0
  b6:	0e 94 8e 01 	call	0x31c	; 0x31c <LCD_WriteString>
  ba:	8b e9       	ldi	r24, 0x9B	; 155
  bc:	90 e0       	ldi	r25, 0x00	; 0
  be:	0e 94 8e 01 	call	0x31c	; 0x31c <LCD_WriteString>
  c2:	87 e6       	ldi	r24, 0x67	; 103
  c4:	90 e0       	ldi	r25, 0x00	; 0
  c6:	0e 94 8e 01 	call	0x31c	; 0x31c <LCD_WriteString>
  ca:	61 e0       	ldi	r22, 0x01	; 1
  cc:	88 e0       	ldi	r24, 0x08	; 8
  ce:	0e 94 b3 02 	call	0x566	; 0x566 <DIO_WritePin>
  d2:	8f ec       	ldi	r24, 0xCF	; 207
  d4:	97 e0       	ldi	r25, 0x07	; 7
  d6:	01 97       	sbiw	r24, 0x01	; 1
  d8:	f1 f7       	brne	.-4      	; 0xd6 <resive_String+0x44>
  da:	00 c0       	rjmp	.+0      	; 0xdc <resive_String+0x4a>
  dc:	00 00       	nop
  de:	60 e0       	ldi	r22, 0x00	; 0
  e0:	88 e0       	ldi	r24, 0x08	; 8
  e2:	0e 94 b3 02 	call	0x566	; 0x566 <DIO_WritePin>
  e6:	8b e9       	ldi	r24, 0x9B	; 155
  e8:	90 e0       	ldi	r25, 0x00	; 0
  ea:	0c 94 ff 04 	jmp	0x9fe	; 0x9fe <spi_send_string>
  ee:	ae 2f       	mov	r26, r30
  f0:	b0 e0       	ldi	r27, 0x00	; 0
  f2:	a5 56       	subi	r26, 0x65	; 101
  f4:	bf 4f       	sbci	r27, 0xFF	; 255
  f6:	8c 93       	st	X, r24
  f8:	ef 5f       	subi	r30, 0xFF	; 255
  fa:	e0 93 9a 00 	sts	0x009A, r30	; 0x80009a <__data_end>
  fe:	08 95       	ret

00000100 <spi_resive_String>:
 100:	cf 93       	push	r28
 102:	df 93       	push	r29
 104:	cf ea       	ldi	r28, 0xAF	; 175
 106:	d0 e0       	ldi	r29, 0x00	; 0
 108:	0e 94 40 03 	call	0x680	; 0x680 <spi_resive>
 10c:	89 93       	st	Y+, r24
 10e:	80 e0       	ldi	r24, 0x00	; 0
 110:	c3 3c       	cpi	r28, 0xC3	; 195
 112:	d8 07       	cpc	r29, r24
 114:	c9 f7       	brne	.-14     	; 0x108 <spi_resive_String+0x8>
 116:	8f ea       	ldi	r24, 0xAF	; 175
 118:	90 e0       	ldi	r25, 0x00	; 0
 11a:	0e 94 2e 05 	call	0xa5c	; 0xa5c <UART_SendStringAsynch>
 11e:	60 e0       	ldi	r22, 0x00	; 0
 120:	80 e0       	ldi	r24, 0x00	; 0
 122:	0e 94 a1 01 	call	0x342	; 0x342 <LCD_SetCursor>
 126:	85 e7       	ldi	r24, 0x75	; 117
 128:	90 e0       	ldi	r25, 0x00	; 0
 12a:	0e 94 8e 01 	call	0x31c	; 0x31c <LCD_WriteString>
 12e:	8f ea       	ldi	r24, 0xAF	; 175
 130:	90 e0       	ldi	r25, 0x00	; 0
 132:	0e 94 8e 01 	call	0x31c	; 0x31c <LCD_WriteString>
 136:	8c e6       	ldi	r24, 0x6C	; 108
 138:	90 e0       	ldi	r25, 0x00	; 0
 13a:	0e 94 8e 01 	call	0x31c	; 0x31c <LCD_WriteString>
 13e:	8d e0       	ldi	r24, 0x0D	; 13
 140:	80 93 af 00 	sts	0x00AF, r24	; 0x8000af <buffer_resive>
 144:	10 92 b0 00 	sts	0x00B0, r1	; 0x8000b0 <buffer_resive+0x1>
 148:	8f ea       	ldi	r24, 0xAF	; 175
 14a:	90 e0       	ldi	r25, 0x00	; 0
 14c:	df 91       	pop	r29
 14e:	cf 91       	pop	r28
 150:	0c 94 2e 05 	jmp	0xa5c	; 0xa5c <UART_SendStringAsynch>

00000154 <start_chat>:
 154:	0e 94 9b 04 	call	0x936	; 0x936 <UART_RX_InterruptEnable>
 158:	89 e4       	ldi	r24, 0x49	; 73
 15a:	90 e0       	ldi	r25, 0x00	; 0
 15c:	0c 94 9f 04 	jmp	0x93e	; 0x93e <UART_RX_SetCallBack>

00000160 <WriteIns>:
 160:	cf 93       	push	r28
 162:	c8 2f       	mov	r28, r24
 164:	60 e0       	ldi	r22, 0x00	; 0
 166:	81 e0       	ldi	r24, 0x01	; 1
 168:	0e 94 b3 02 	call	0x566	; 0x566 <DIO_WritePin>
 16c:	6c 2f       	mov	r22, r28
 16e:	66 1f       	adc	r22, r22
 170:	66 27       	eor	r22, r22
 172:	66 1f       	adc	r22, r22
 174:	86 e0       	ldi	r24, 0x06	; 6
 176:	0e 94 b3 02 	call	0x566	; 0x566 <DIO_WritePin>
 17a:	c6 fb       	bst	r28, 6
 17c:	66 27       	eor	r22, r22
 17e:	60 f9       	bld	r22, 0
 180:	85 e0       	ldi	r24, 0x05	; 5
 182:	0e 94 b3 02 	call	0x566	; 0x566 <DIO_WritePin>
 186:	c5 fb       	bst	r28, 5
 188:	66 27       	eor	r22, r22
 18a:	60 f9       	bld	r22, 0
 18c:	84 e0       	ldi	r24, 0x04	; 4
 18e:	0e 94 b3 02 	call	0x566	; 0x566 <DIO_WritePin>
 192:	c4 fb       	bst	r28, 4
 194:	66 27       	eor	r22, r22
 196:	60 f9       	bld	r22, 0
 198:	83 e0       	ldi	r24, 0x03	; 3
 19a:	0e 94 b3 02 	call	0x566	; 0x566 <DIO_WritePin>
 19e:	61 e0       	ldi	r22, 0x01	; 1
 1a0:	82 e0       	ldi	r24, 0x02	; 2
 1a2:	0e 94 b3 02 	call	0x566	; 0x566 <DIO_WritePin>
 1a6:	8f ec       	ldi	r24, 0xCF	; 207
 1a8:	97 e0       	ldi	r25, 0x07	; 7
 1aa:	01 97       	sbiw	r24, 0x01	; 1
 1ac:	f1 f7       	brne	.-4      	; 0x1aa <WriteIns+0x4a>
 1ae:	00 c0       	rjmp	.+0      	; 0x1b0 <WriteIns+0x50>
 1b0:	00 00       	nop
 1b2:	60 e0       	ldi	r22, 0x00	; 0
 1b4:	82 e0       	ldi	r24, 0x02	; 2
 1b6:	0e 94 b3 02 	call	0x566	; 0x566 <DIO_WritePin>
 1ba:	8f ec       	ldi	r24, 0xCF	; 207
 1bc:	97 e0       	ldi	r25, 0x07	; 7
 1be:	01 97       	sbiw	r24, 0x01	; 1
 1c0:	f1 f7       	brne	.-4      	; 0x1be <WriteIns+0x5e>
 1c2:	00 c0       	rjmp	.+0      	; 0x1c4 <WriteIns+0x64>
 1c4:	00 00       	nop
 1c6:	c3 fb       	bst	r28, 3
 1c8:	66 27       	eor	r22, r22
 1ca:	60 f9       	bld	r22, 0
 1cc:	86 e0       	ldi	r24, 0x06	; 6
 1ce:	0e 94 b3 02 	call	0x566	; 0x566 <DIO_WritePin>
 1d2:	c2 fb       	bst	r28, 2
 1d4:	66 27       	eor	r22, r22
 1d6:	60 f9       	bld	r22, 0
 1d8:	85 e0       	ldi	r24, 0x05	; 5
 1da:	0e 94 b3 02 	call	0x566	; 0x566 <DIO_WritePin>
 1de:	c1 fb       	bst	r28, 1
 1e0:	66 27       	eor	r22, r22
 1e2:	60 f9       	bld	r22, 0
 1e4:	84 e0       	ldi	r24, 0x04	; 4
 1e6:	0e 94 b3 02 	call	0x566	; 0x566 <DIO_WritePin>
 1ea:	6c 2f       	mov	r22, r28
 1ec:	61 70       	andi	r22, 0x01	; 1
 1ee:	83 e0       	ldi	r24, 0x03	; 3
 1f0:	0e 94 b3 02 	call	0x566	; 0x566 <DIO_WritePin>
 1f4:	61 e0       	ldi	r22, 0x01	; 1
 1f6:	82 e0       	ldi	r24, 0x02	; 2
 1f8:	0e 94 b3 02 	call	0x566	; 0x566 <DIO_WritePin>
 1fc:	8f ec       	ldi	r24, 0xCF	; 207
 1fe:	97 e0       	ldi	r25, 0x07	; 7
 200:	01 97       	sbiw	r24, 0x01	; 1
 202:	f1 f7       	brne	.-4      	; 0x200 <WriteIns+0xa0>
 204:	00 c0       	rjmp	.+0      	; 0x206 <WriteIns+0xa6>
 206:	00 00       	nop
 208:	60 e0       	ldi	r22, 0x00	; 0
 20a:	82 e0       	ldi	r24, 0x02	; 2
 20c:	0e 94 b3 02 	call	0x566	; 0x566 <DIO_WritePin>
 210:	8f ec       	ldi	r24, 0xCF	; 207
 212:	97 e0       	ldi	r25, 0x07	; 7
 214:	01 97       	sbiw	r24, 0x01	; 1
 216:	f1 f7       	brne	.-4      	; 0x214 <WriteIns+0xb4>
 218:	00 c0       	rjmp	.+0      	; 0x21a <WriteIns+0xba>
 21a:	00 00       	nop
 21c:	cf 91       	pop	r28
 21e:	08 95       	ret

00000220 <WriteData>:
 220:	cf 93       	push	r28
 222:	c8 2f       	mov	r28, r24
 224:	61 e0       	ldi	r22, 0x01	; 1
 226:	81 e0       	ldi	r24, 0x01	; 1
 228:	0e 94 b3 02 	call	0x566	; 0x566 <DIO_WritePin>
 22c:	6c 2f       	mov	r22, r28
 22e:	66 1f       	adc	r22, r22
 230:	66 27       	eor	r22, r22
 232:	66 1f       	adc	r22, r22
 234:	86 e0       	ldi	r24, 0x06	; 6
 236:	0e 94 b3 02 	call	0x566	; 0x566 <DIO_WritePin>
 23a:	c6 fb       	bst	r28, 6
 23c:	66 27       	eor	r22, r22
 23e:	60 f9       	bld	r22, 0
 240:	85 e0       	ldi	r24, 0x05	; 5
 242:	0e 94 b3 02 	call	0x566	; 0x566 <DIO_WritePin>
 246:	c5 fb       	bst	r28, 5
 248:	66 27       	eor	r22, r22
 24a:	60 f9       	bld	r22, 0
 24c:	84 e0       	ldi	r24, 0x04	; 4
 24e:	0e 94 b3 02 	call	0x566	; 0x566 <DIO_WritePin>
 252:	c4 fb       	bst	r28, 4
 254:	66 27       	eor	r22, r22
 256:	60 f9       	bld	r22, 0
 258:	83 e0       	ldi	r24, 0x03	; 3
 25a:	0e 94 b3 02 	call	0x566	; 0x566 <DIO_WritePin>
 25e:	61 e0       	ldi	r22, 0x01	; 1
 260:	82 e0       	ldi	r24, 0x02	; 2
 262:	0e 94 b3 02 	call	0x566	; 0x566 <DIO_WritePin>
 266:	8f ec       	ldi	r24, 0xCF	; 207
 268:	97 e0       	ldi	r25, 0x07	; 7
 26a:	01 97       	sbiw	r24, 0x01	; 1
 26c:	f1 f7       	brne	.-4      	; 0x26a <WriteData+0x4a>
 26e:	00 c0       	rjmp	.+0      	; 0x270 <WriteData+0x50>
 270:	00 00       	nop
 272:	60 e0       	ldi	r22, 0x00	; 0
 274:	82 e0       	ldi	r24, 0x02	; 2
 276:	0e 94 b3 02 	call	0x566	; 0x566 <DIO_WritePin>
 27a:	8f ec       	ldi	r24, 0xCF	; 207
 27c:	97 e0       	ldi	r25, 0x07	; 7
 27e:	01 97       	sbiw	r24, 0x01	; 1
 280:	f1 f7       	brne	.-4      	; 0x27e <WriteData+0x5e>
 282:	00 c0       	rjmp	.+0      	; 0x284 <WriteData+0x64>
 284:	00 00       	nop
 286:	c3 fb       	bst	r28, 3
 288:	66 27       	eor	r22, r22
 28a:	60 f9       	bld	r22, 0
 28c:	86 e0       	ldi	r24, 0x06	; 6
 28e:	0e 94 b3 02 	call	0x566	; 0x566 <DIO_WritePin>
 292:	c2 fb       	bst	r28, 2
 294:	66 27       	eor	r22, r22
 296:	60 f9       	bld	r22, 0
 298:	85 e0       	ldi	r24, 0x05	; 5
 29a:	0e 94 b3 02 	call	0x566	; 0x566 <DIO_WritePin>
 29e:	c1 fb       	bst	r28, 1
 2a0:	66 27       	eor	r22, r22
 2a2:	60 f9       	bld	r22, 0
 2a4:	84 e0       	ldi	r24, 0x04	; 4
 2a6:	0e 94 b3 02 	call	0x566	; 0x566 <DIO_WritePin>
 2aa:	6c 2f       	mov	r22, r28
 2ac:	61 70       	andi	r22, 0x01	; 1
 2ae:	83 e0       	ldi	r24, 0x03	; 3
 2b0:	0e 94 b3 02 	call	0x566	; 0x566 <DIO_WritePin>
 2b4:	61 e0       	ldi	r22, 0x01	; 1
 2b6:	82 e0       	ldi	r24, 0x02	; 2
 2b8:	0e 94 b3 02 	call	0x566	; 0x566 <DIO_WritePin>
 2bc:	8f ec       	ldi	r24, 0xCF	; 207
 2be:	97 e0       	ldi	r25, 0x07	; 7
 2c0:	01 97       	sbiw	r24, 0x01	; 1
 2c2:	f1 f7       	brne	.-4      	; 0x2c0 <WriteData+0xa0>
 2c4:	00 c0       	rjmp	.+0      	; 0x2c6 <WriteData+0xa6>
 2c6:	00 00       	nop
 2c8:	60 e0       	ldi	r22, 0x00	; 0
 2ca:	82 e0       	ldi	r24, 0x02	; 2
 2cc:	0e 94 b3 02 	call	0x566	; 0x566 <DIO_WritePin>
 2d0:	8f ec       	ldi	r24, 0xCF	; 207
 2d2:	97 e0       	ldi	r25, 0x07	; 7
 2d4:	01 97       	sbiw	r24, 0x01	; 1
 2d6:	f1 f7       	brne	.-4      	; 0x2d4 <WriteData+0xb4>
 2d8:	00 c0       	rjmp	.+0      	; 0x2da <WriteData+0xba>
 2da:	00 00       	nop
 2dc:	cf 91       	pop	r28
 2de:	08 95       	ret

000002e0 <LCD_Init>:
 2e0:	2f e7       	ldi	r18, 0x7F	; 127
 2e2:	88 e3       	ldi	r24, 0x38	; 56
 2e4:	91 e0       	ldi	r25, 0x01	; 1
 2e6:	21 50       	subi	r18, 0x01	; 1
 2e8:	80 40       	sbci	r24, 0x00	; 0
 2ea:	90 40       	sbci	r25, 0x00	; 0
 2ec:	e1 f7       	brne	.-8      	; 0x2e6 <LCD_Init+0x6>
 2ee:	00 c0       	rjmp	.+0      	; 0x2f0 <LCD_Init+0x10>
 2f0:	00 00       	nop
 2f2:	82 e0       	ldi	r24, 0x02	; 2
 2f4:	0e 94 b0 00 	call	0x160	; 0x160 <WriteIns>
 2f8:	88 e2       	ldi	r24, 0x28	; 40
 2fa:	0e 94 b0 00 	call	0x160	; 0x160 <WriteIns>
 2fe:	8c e0       	ldi	r24, 0x0C	; 12
 300:	0e 94 b0 00 	call	0x160	; 0x160 <WriteIns>
 304:	81 e0       	ldi	r24, 0x01	; 1
 306:	0e 94 b0 00 	call	0x160	; 0x160 <WriteIns>
 30a:	8f ec       	ldi	r24, 0xCF	; 207
 30c:	97 e0       	ldi	r25, 0x07	; 7
 30e:	01 97       	sbiw	r24, 0x01	; 1
 310:	f1 f7       	brne	.-4      	; 0x30e <LCD_Init+0x2e>
 312:	00 c0       	rjmp	.+0      	; 0x314 <LCD_Init+0x34>
 314:	00 00       	nop
 316:	86 e0       	ldi	r24, 0x06	; 6
 318:	0c 94 b0 00 	jmp	0x160	; 0x160 <WriteIns>

0000031c <LCD_WriteString>:
 31c:	0f 93       	push	r16
 31e:	1f 93       	push	r17
 320:	cf 93       	push	r28
 322:	8c 01       	movw	r16, r24
 324:	c0 e0       	ldi	r28, 0x00	; 0
 326:	f8 01       	movw	r30, r16
 328:	ec 0f       	add	r30, r28
 32a:	f1 1d       	adc	r31, r1
 32c:	80 81       	ld	r24, Z
 32e:	88 23       	and	r24, r24
 330:	21 f0       	breq	.+8      	; 0x33a <LCD_WriteString+0x1e>
 332:	0e 94 10 01 	call	0x220	; 0x220 <WriteData>
 336:	cf 5f       	subi	r28, 0xFF	; 255
 338:	f6 cf       	rjmp	.-20     	; 0x326 <LCD_WriteString+0xa>
 33a:	cf 91       	pop	r28
 33c:	1f 91       	pop	r17
 33e:	0f 91       	pop	r16
 340:	08 95       	ret

00000342 <LCD_SetCursor>:
 342:	81 11       	cpse	r24, r1
 344:	03 c0       	rjmp	.+6      	; 0x34c <LCD_SetCursor+0xa>
 346:	86 2f       	mov	r24, r22
 348:	80 68       	ori	r24, 0x80	; 128
 34a:	04 c0       	rjmp	.+8      	; 0x354 <LCD_SetCursor+0x12>
 34c:	81 30       	cpi	r24, 0x01	; 1
 34e:	21 f4       	brne	.+8      	; 0x358 <LCD_SetCursor+0x16>
 350:	80 ec       	ldi	r24, 0xC0	; 192
 352:	86 0f       	add	r24, r22
 354:	0c 94 b0 00 	jmp	0x160	; 0x160 <WriteIns>
 358:	08 95       	ret

0000035a <RGB_Init>:
 35a:	62 e0       	ldi	r22, 0x02	; 2
 35c:	83 e0       	ldi	r24, 0x03	; 3
 35e:	0e 94 44 03 	call	0x688	; 0x688 <TIMER0_Init>
 362:	83 e0       	ldi	r24, 0x03	; 3
 364:	0e 94 64 03 	call	0x6c8	; 0x6c8 <TIMER0_OC0Mode>
 368:	62 e0       	ldi	r22, 0x02	; 2
 36a:	83 e0       	ldi	r24, 0x03	; 3
 36c:	0e 94 7f 03 	call	0x6fe	; 0x6fe <Timer1_Init>
 370:	83 e0       	ldi	r24, 0x03	; 3
 372:	0e 94 bb 03 	call	0x776	; 0x776 <Timer1_OCRA1Mode>
 376:	82 e0       	ldi	r24, 0x02	; 2
 378:	0e 94 d6 03 	call	0x7ac	; 0x7ac <Timer1_OCRB1Mode>
 37c:	8f ef       	ldi	r24, 0xFF	; 255
 37e:	90 e0       	ldi	r25, 0x00	; 0
 380:	97 bd       	out	0x27, r25	; 39
 382:	86 bd       	out	0x26, r24	; 38
 384:	08 95       	ret

00000386 <main>:
 386:	0e 94 d5 01 	call	0x3aa	; 0x3aa <DIO_Init>
 38a:	0e 94 70 01 	call	0x2e0	; 0x2e0 <LCD_Init>
 38e:	0e 94 ad 01 	call	0x35a	; 0x35a <RGB_Init>
 392:	83 e3       	ldi	r24, 0x33	; 51
 394:	0e 94 95 04 	call	0x92a	; 0x92a <UART_Init>
 398:	81 e0       	ldi	r24, 0x01	; 1
 39a:	0e 94 35 03 	call	0x66a	; 0x66a <SPI_Init>
 39e:	0e 94 aa 00 	call	0x154	; 0x154 <start_chat>
 3a2:	78 94       	sei
 3a4:	0e 94 80 00 	call	0x100	; 0x100 <spi_resive_String>
 3a8:	fd cf       	rjmp	.-6      	; 0x3a4 <main+0x1e>

000003aa <DIO_Init>:
 3aa:	ea e7       	ldi	r30, 0x7A	; 122
 3ac:	f0 e0       	ldi	r31, 0x00	; 0
 3ae:	40 e0       	ldi	r20, 0x00	; 0
 3b0:	81 e0       	ldi	r24, 0x01	; 1
 3b2:	90 e0       	ldi	r25, 0x00	; 0
 3b4:	51 91       	ld	r21, Z+
 3b6:	34 2f       	mov	r19, r20
 3b8:	36 95       	lsr	r19
 3ba:	36 95       	lsr	r19
 3bc:	36 95       	lsr	r19
 3be:	24 2f       	mov	r18, r20
 3c0:	27 70       	andi	r18, 0x07	; 7
 3c2:	51 30       	cpi	r21, 0x01	; 1
 3c4:	09 f4       	brne	.+2      	; 0x3c8 <DIO_Init+0x1e>
 3c6:	43 c0       	rjmp	.+134    	; 0x44e <__EEPROM_REGION_LENGTH__+0x4e>
 3c8:	20 f0       	brcs	.+8      	; 0x3d2 <DIO_Init+0x28>
 3ca:	52 30       	cpi	r21, 0x02	; 2
 3cc:	09 f4       	brne	.+2      	; 0x3d0 <DIO_Init+0x26>
 3ce:	82 c0       	rjmp	.+260    	; 0x4d4 <__EEPROM_REGION_LENGTH__+0xd4>
 3d0:	c5 c0       	rjmp	.+394    	; 0x55c <__EEPROM_REGION_LENGTH__+0x15c>
 3d2:	32 30       	cpi	r19, 0x02	; 2
 3d4:	01 f1       	breq	.+64     	; 0x416 <__EEPROM_REGION_LENGTH__+0x16>
 3d6:	33 30       	cpi	r19, 0x03	; 3
 3d8:	61 f1       	breq	.+88     	; 0x432 <__EEPROM_REGION_LENGTH__+0x32>
 3da:	31 30       	cpi	r19, 0x01	; 1
 3dc:	71 f0       	breq	.+28     	; 0x3fa <DIO_Init+0x50>
 3de:	5a b3       	in	r21, 0x1a	; 26
 3e0:	bc 01       	movw	r22, r24
 3e2:	02 c0       	rjmp	.+4      	; 0x3e8 <DIO_Init+0x3e>
 3e4:	66 0f       	add	r22, r22
 3e6:	77 1f       	adc	r23, r23
 3e8:	2a 95       	dec	r18
 3ea:	e2 f7       	brpl	.-8      	; 0x3e4 <DIO_Init+0x3a>
 3ec:	9b 01       	movw	r18, r22
 3ee:	35 2f       	mov	r19, r21
 3f0:	32 2b       	or	r19, r18
 3f2:	3a bb       	out	0x1a, r19	; 26
 3f4:	3b b3       	in	r19, 0x1b	; 27
 3f6:	20 95       	com	r18
 3f8:	3d c0       	rjmp	.+122    	; 0x474 <__EEPROM_REGION_LENGTH__+0x74>
 3fa:	57 b3       	in	r21, 0x17	; 23
 3fc:	bc 01       	movw	r22, r24
 3fe:	02 c0       	rjmp	.+4      	; 0x404 <__EEPROM_REGION_LENGTH__+0x4>
 400:	66 0f       	add	r22, r22
 402:	77 1f       	adc	r23, r23
 404:	2a 95       	dec	r18
 406:	e2 f7       	brpl	.-8      	; 0x400 <__EEPROM_REGION_LENGTH__>
 408:	9b 01       	movw	r18, r22
 40a:	35 2f       	mov	r19, r21
 40c:	32 2b       	or	r19, r18
 40e:	37 bb       	out	0x17, r19	; 23
 410:	38 b3       	in	r19, 0x18	; 24
 412:	20 95       	com	r18
 414:	3e c0       	rjmp	.+124    	; 0x492 <__EEPROM_REGION_LENGTH__+0x92>
 416:	54 b3       	in	r21, 0x14	; 20
 418:	bc 01       	movw	r22, r24
 41a:	02 c0       	rjmp	.+4      	; 0x420 <__EEPROM_REGION_LENGTH__+0x20>
 41c:	66 0f       	add	r22, r22
 41e:	77 1f       	adc	r23, r23
 420:	2a 95       	dec	r18
 422:	e2 f7       	brpl	.-8      	; 0x41c <__EEPROM_REGION_LENGTH__+0x1c>
 424:	9b 01       	movw	r18, r22
 426:	35 2f       	mov	r19, r21
 428:	32 2b       	or	r19, r18
 42a:	34 bb       	out	0x14, r19	; 20
 42c:	35 b3       	in	r19, 0x15	; 21
 42e:	20 95       	com	r18
 430:	3f c0       	rjmp	.+126    	; 0x4b0 <__EEPROM_REGION_LENGTH__+0xb0>
 432:	51 b3       	in	r21, 0x11	; 17
 434:	bc 01       	movw	r22, r24
 436:	02 c0       	rjmp	.+4      	; 0x43c <__EEPROM_REGION_LENGTH__+0x3c>
 438:	66 0f       	add	r22, r22
 43a:	77 1f       	adc	r23, r23
 43c:	2a 95       	dec	r18
 43e:	e2 f7       	brpl	.-8      	; 0x438 <__EEPROM_REGION_LENGTH__+0x38>
 440:	9b 01       	movw	r18, r22
 442:	35 2f       	mov	r19, r21
 444:	32 2b       	or	r19, r18
 446:	31 bb       	out	0x11, r19	; 17
 448:	32 b3       	in	r19, 0x12	; 18
 44a:	20 95       	com	r18
 44c:	41 c0       	rjmp	.+130    	; 0x4d0 <__EEPROM_REGION_LENGTH__+0xd0>
 44e:	32 30       	cpi	r19, 0x02	; 2
 450:	11 f1       	breq	.+68     	; 0x496 <__EEPROM_REGION_LENGTH__+0x96>
 452:	33 30       	cpi	r19, 0x03	; 3
 454:	81 f1       	breq	.+96     	; 0x4b6 <__EEPROM_REGION_LENGTH__+0xb6>
 456:	31 30       	cpi	r19, 0x01	; 1
 458:	79 f0       	breq	.+30     	; 0x478 <__EEPROM_REGION_LENGTH__+0x78>
 45a:	5a b3       	in	r21, 0x1a	; 26
 45c:	bc 01       	movw	r22, r24
 45e:	02 c0       	rjmp	.+4      	; 0x464 <__EEPROM_REGION_LENGTH__+0x64>
 460:	66 0f       	add	r22, r22
 462:	77 1f       	adc	r23, r23
 464:	2a 95       	dec	r18
 466:	e2 f7       	brpl	.-8      	; 0x460 <__EEPROM_REGION_LENGTH__+0x60>
 468:	9b 01       	movw	r18, r22
 46a:	20 95       	com	r18
 46c:	35 2f       	mov	r19, r21
 46e:	32 23       	and	r19, r18
 470:	3a bb       	out	0x1a, r19	; 26
 472:	3b b3       	in	r19, 0x1b	; 27
 474:	23 23       	and	r18, r19
 476:	42 c0       	rjmp	.+132    	; 0x4fc <__EEPROM_REGION_LENGTH__+0xfc>
 478:	57 b3       	in	r21, 0x17	; 23
 47a:	bc 01       	movw	r22, r24
 47c:	02 c0       	rjmp	.+4      	; 0x482 <__EEPROM_REGION_LENGTH__+0x82>
 47e:	66 0f       	add	r22, r22
 480:	77 1f       	adc	r23, r23
 482:	2a 95       	dec	r18
 484:	e2 f7       	brpl	.-8      	; 0x47e <__EEPROM_REGION_LENGTH__+0x7e>
 486:	9b 01       	movw	r18, r22
 488:	20 95       	com	r18
 48a:	35 2f       	mov	r19, r21
 48c:	32 23       	and	r19, r18
 48e:	37 bb       	out	0x17, r19	; 23
 490:	38 b3       	in	r19, 0x18	; 24
 492:	23 23       	and	r18, r19
 494:	43 c0       	rjmp	.+134    	; 0x51c <__EEPROM_REGION_LENGTH__+0x11c>
 496:	54 b3       	in	r21, 0x14	; 20
 498:	bc 01       	movw	r22, r24
 49a:	02 c0       	rjmp	.+4      	; 0x4a0 <__EEPROM_REGION_LENGTH__+0xa0>
 49c:	66 0f       	add	r22, r22
 49e:	77 1f       	adc	r23, r23
 4a0:	2a 95       	dec	r18
 4a2:	e2 f7       	brpl	.-8      	; 0x49c <__EEPROM_REGION_LENGTH__+0x9c>
 4a4:	9b 01       	movw	r18, r22
 4a6:	20 95       	com	r18
 4a8:	35 2f       	mov	r19, r21
 4aa:	32 23       	and	r19, r18
 4ac:	34 bb       	out	0x14, r19	; 20
 4ae:	35 b3       	in	r19, 0x15	; 21
 4b0:	23 23       	and	r18, r19
 4b2:	25 bb       	out	0x15, r18	; 21
 4b4:	53 c0       	rjmp	.+166    	; 0x55c <__EEPROM_REGION_LENGTH__+0x15c>
 4b6:	51 b3       	in	r21, 0x11	; 17
 4b8:	bc 01       	movw	r22, r24
 4ba:	02 c0       	rjmp	.+4      	; 0x4c0 <__EEPROM_REGION_LENGTH__+0xc0>
 4bc:	66 0f       	add	r22, r22
 4be:	77 1f       	adc	r23, r23
 4c0:	2a 95       	dec	r18
 4c2:	e2 f7       	brpl	.-8      	; 0x4bc <__EEPROM_REGION_LENGTH__+0xbc>
 4c4:	9b 01       	movw	r18, r22
 4c6:	20 95       	com	r18
 4c8:	35 2f       	mov	r19, r21
 4ca:	32 23       	and	r19, r18
 4cc:	31 bb       	out	0x11, r19	; 17
 4ce:	32 b3       	in	r19, 0x12	; 18
 4d0:	23 23       	and	r18, r19
 4d2:	43 c0       	rjmp	.+134    	; 0x55a <__EEPROM_REGION_LENGTH__+0x15a>
 4d4:	32 30       	cpi	r19, 0x02	; 2
 4d6:	21 f1       	breq	.+72     	; 0x520 <__EEPROM_REGION_LENGTH__+0x120>
 4d8:	33 30       	cpi	r19, 0x03	; 3
 4da:	89 f1       	breq	.+98     	; 0x53e <__EEPROM_REGION_LENGTH__+0x13e>
 4dc:	31 30       	cpi	r19, 0x01	; 1
 4de:	81 f0       	breq	.+32     	; 0x500 <__EEPROM_REGION_LENGTH__+0x100>
 4e0:	5a b3       	in	r21, 0x1a	; 26
 4e2:	bc 01       	movw	r22, r24
 4e4:	02 c0       	rjmp	.+4      	; 0x4ea <__EEPROM_REGION_LENGTH__+0xea>
 4e6:	66 0f       	add	r22, r22
 4e8:	77 1f       	adc	r23, r23
 4ea:	2a 95       	dec	r18
 4ec:	e2 f7       	brpl	.-8      	; 0x4e6 <__EEPROM_REGION_LENGTH__+0xe6>
 4ee:	9b 01       	movw	r18, r22
 4f0:	36 2f       	mov	r19, r22
 4f2:	30 95       	com	r19
 4f4:	35 23       	and	r19, r21
 4f6:	3a bb       	out	0x1a, r19	; 26
 4f8:	3b b3       	in	r19, 0x1b	; 27
 4fa:	23 2b       	or	r18, r19
 4fc:	2b bb       	out	0x1b, r18	; 27
 4fe:	2e c0       	rjmp	.+92     	; 0x55c <__EEPROM_REGION_LENGTH__+0x15c>
 500:	57 b3       	in	r21, 0x17	; 23
 502:	bc 01       	movw	r22, r24
 504:	02 c0       	rjmp	.+4      	; 0x50a <__EEPROM_REGION_LENGTH__+0x10a>
 506:	66 0f       	add	r22, r22
 508:	77 1f       	adc	r23, r23
 50a:	2a 95       	dec	r18
 50c:	e2 f7       	brpl	.-8      	; 0x506 <__EEPROM_REGION_LENGTH__+0x106>
 50e:	9b 01       	movw	r18, r22
 510:	36 2f       	mov	r19, r22
 512:	30 95       	com	r19
 514:	35 23       	and	r19, r21
 516:	37 bb       	out	0x17, r19	; 23
 518:	38 b3       	in	r19, 0x18	; 24
 51a:	23 2b       	or	r18, r19
 51c:	28 bb       	out	0x18, r18	; 24
 51e:	1e c0       	rjmp	.+60     	; 0x55c <__EEPROM_REGION_LENGTH__+0x15c>
 520:	54 b3       	in	r21, 0x14	; 20
 522:	bc 01       	movw	r22, r24
 524:	02 c0       	rjmp	.+4      	; 0x52a <__EEPROM_REGION_LENGTH__+0x12a>
 526:	66 0f       	add	r22, r22
 528:	77 1f       	adc	r23, r23
 52a:	2a 95       	dec	r18
 52c:	e2 f7       	brpl	.-8      	; 0x526 <__EEPROM_REGION_LENGTH__+0x126>
 52e:	9b 01       	movw	r18, r22
 530:	36 2f       	mov	r19, r22
 532:	30 95       	com	r19
 534:	35 23       	and	r19, r21
 536:	34 bb       	out	0x14, r19	; 20
 538:	35 b3       	in	r19, 0x15	; 21
 53a:	23 2b       	or	r18, r19
 53c:	ba cf       	rjmp	.-140    	; 0x4b2 <__EEPROM_REGION_LENGTH__+0xb2>
 53e:	51 b3       	in	r21, 0x11	; 17
 540:	bc 01       	movw	r22, r24
 542:	02 c0       	rjmp	.+4      	; 0x548 <__EEPROM_REGION_LENGTH__+0x148>
 544:	66 0f       	add	r22, r22
 546:	77 1f       	adc	r23, r23
 548:	2a 95       	dec	r18
 54a:	e2 f7       	brpl	.-8      	; 0x544 <__EEPROM_REGION_LENGTH__+0x144>
 54c:	9b 01       	movw	r18, r22
 54e:	36 2f       	mov	r19, r22
 550:	30 95       	com	r19
 552:	35 23       	and	r19, r21
 554:	31 bb       	out	0x11, r19	; 17
 556:	32 b3       	in	r19, 0x12	; 18
 558:	23 2b       	or	r18, r19
 55a:	22 bb       	out	0x12, r18	; 18
 55c:	4f 5f       	subi	r20, 0xFF	; 255
 55e:	40 32       	cpi	r20, 0x20	; 32
 560:	09 f0       	breq	.+2      	; 0x564 <__EEPROM_REGION_LENGTH__+0x164>
 562:	28 cf       	rjmp	.-432    	; 0x3b4 <DIO_Init+0xa>
 564:	08 95       	ret

00000566 <DIO_WritePin>:
 566:	98 2f       	mov	r25, r24
 568:	96 95       	lsr	r25
 56a:	96 95       	lsr	r25
 56c:	96 95       	lsr	r25
 56e:	87 70       	andi	r24, 0x07	; 7
 570:	66 23       	and	r22, r22
 572:	d9 f1       	breq	.+118    	; 0x5ea <DIO_WritePin+0x84>
 574:	61 30       	cpi	r22, 0x01	; 1
 576:	09 f0       	breq	.+2      	; 0x57a <DIO_WritePin+0x14>
 578:	77 c0       	rjmp	.+238    	; 0x668 <DIO_WritePin+0x102>
 57a:	91 30       	cpi	r25, 0x01	; 1
 57c:	91 f0       	breq	.+36     	; 0x5a2 <DIO_WritePin+0x3c>
 57e:	28 f0       	brcs	.+10     	; 0x58a <DIO_WritePin+0x24>
 580:	92 30       	cpi	r25, 0x02	; 2
 582:	d9 f0       	breq	.+54     	; 0x5ba <DIO_WritePin+0x54>
 584:	93 30       	cpi	r25, 0x03	; 3
 586:	29 f1       	breq	.+74     	; 0x5d2 <DIO_WritePin+0x6c>
 588:	08 95       	ret
 58a:	4b b3       	in	r20, 0x1b	; 27
 58c:	21 e0       	ldi	r18, 0x01	; 1
 58e:	30 e0       	ldi	r19, 0x00	; 0
 590:	b9 01       	movw	r22, r18
 592:	02 c0       	rjmp	.+4      	; 0x598 <DIO_WritePin+0x32>
 594:	66 0f       	add	r22, r22
 596:	77 1f       	adc	r23, r23
 598:	8a 95       	dec	r24
 59a:	e2 f7       	brpl	.-8      	; 0x594 <DIO_WritePin+0x2e>
 59c:	cb 01       	movw	r24, r22
 59e:	84 2b       	or	r24, r20
 5a0:	38 c0       	rjmp	.+112    	; 0x612 <DIO_WritePin+0xac>
 5a2:	48 b3       	in	r20, 0x18	; 24
 5a4:	21 e0       	ldi	r18, 0x01	; 1
 5a6:	30 e0       	ldi	r19, 0x00	; 0
 5a8:	b9 01       	movw	r22, r18
 5aa:	02 c0       	rjmp	.+4      	; 0x5b0 <DIO_WritePin+0x4a>
 5ac:	66 0f       	add	r22, r22
 5ae:	77 1f       	adc	r23, r23
 5b0:	8a 95       	dec	r24
 5b2:	e2 f7       	brpl	.-8      	; 0x5ac <DIO_WritePin+0x46>
 5b4:	cb 01       	movw	r24, r22
 5b6:	84 2b       	or	r24, r20
 5b8:	3a c0       	rjmp	.+116    	; 0x62e <DIO_WritePin+0xc8>
 5ba:	45 b3       	in	r20, 0x15	; 21
 5bc:	21 e0       	ldi	r18, 0x01	; 1
 5be:	30 e0       	ldi	r19, 0x00	; 0
 5c0:	b9 01       	movw	r22, r18
 5c2:	02 c0       	rjmp	.+4      	; 0x5c8 <DIO_WritePin+0x62>
 5c4:	66 0f       	add	r22, r22
 5c6:	77 1f       	adc	r23, r23
 5c8:	8a 95       	dec	r24
 5ca:	e2 f7       	brpl	.-8      	; 0x5c4 <DIO_WritePin+0x5e>
 5cc:	cb 01       	movw	r24, r22
 5ce:	84 2b       	or	r24, r20
 5d0:	3c c0       	rjmp	.+120    	; 0x64a <DIO_WritePin+0xe4>
 5d2:	42 b3       	in	r20, 0x12	; 18
 5d4:	21 e0       	ldi	r18, 0x01	; 1
 5d6:	30 e0       	ldi	r19, 0x00	; 0
 5d8:	b9 01       	movw	r22, r18
 5da:	02 c0       	rjmp	.+4      	; 0x5e0 <DIO_WritePin+0x7a>
 5dc:	66 0f       	add	r22, r22
 5de:	77 1f       	adc	r23, r23
 5e0:	8a 95       	dec	r24
 5e2:	e2 f7       	brpl	.-8      	; 0x5dc <DIO_WritePin+0x76>
 5e4:	cb 01       	movw	r24, r22
 5e6:	84 2b       	or	r24, r20
 5e8:	3e c0       	rjmp	.+124    	; 0x666 <DIO_WritePin+0x100>
 5ea:	91 30       	cpi	r25, 0x01	; 1
 5ec:	a1 f0       	breq	.+40     	; 0x616 <DIO_WritePin+0xb0>
 5ee:	28 f0       	brcs	.+10     	; 0x5fa <DIO_WritePin+0x94>
 5f0:	92 30       	cpi	r25, 0x02	; 2
 5f2:	f9 f0       	breq	.+62     	; 0x632 <DIO_WritePin+0xcc>
 5f4:	93 30       	cpi	r25, 0x03	; 3
 5f6:	59 f1       	breq	.+86     	; 0x64e <DIO_WritePin+0xe8>
 5f8:	08 95       	ret
 5fa:	4b b3       	in	r20, 0x1b	; 27
 5fc:	21 e0       	ldi	r18, 0x01	; 1
 5fe:	30 e0       	ldi	r19, 0x00	; 0
 600:	b9 01       	movw	r22, r18
 602:	02 c0       	rjmp	.+4      	; 0x608 <DIO_WritePin+0xa2>
 604:	66 0f       	add	r22, r22
 606:	77 1f       	adc	r23, r23
 608:	8a 95       	dec	r24
 60a:	e2 f7       	brpl	.-8      	; 0x604 <DIO_WritePin+0x9e>
 60c:	cb 01       	movw	r24, r22
 60e:	80 95       	com	r24
 610:	84 23       	and	r24, r20
 612:	8b bb       	out	0x1b, r24	; 27
 614:	08 95       	ret
 616:	48 b3       	in	r20, 0x18	; 24
 618:	21 e0       	ldi	r18, 0x01	; 1
 61a:	30 e0       	ldi	r19, 0x00	; 0
 61c:	b9 01       	movw	r22, r18
 61e:	02 c0       	rjmp	.+4      	; 0x624 <DIO_WritePin+0xbe>
 620:	66 0f       	add	r22, r22
 622:	77 1f       	adc	r23, r23
 624:	8a 95       	dec	r24
 626:	e2 f7       	brpl	.-8      	; 0x620 <DIO_WritePin+0xba>
 628:	cb 01       	movw	r24, r22
 62a:	80 95       	com	r24
 62c:	84 23       	and	r24, r20
 62e:	88 bb       	out	0x18, r24	; 24
 630:	08 95       	ret
 632:	45 b3       	in	r20, 0x15	; 21
 634:	21 e0       	ldi	r18, 0x01	; 1
 636:	30 e0       	ldi	r19, 0x00	; 0
 638:	b9 01       	movw	r22, r18
 63a:	02 c0       	rjmp	.+4      	; 0x640 <DIO_WritePin+0xda>
 63c:	66 0f       	add	r22, r22
 63e:	77 1f       	adc	r23, r23
 640:	8a 95       	dec	r24
 642:	e2 f7       	brpl	.-8      	; 0x63c <DIO_WritePin+0xd6>
 644:	cb 01       	movw	r24, r22
 646:	80 95       	com	r24
 648:	84 23       	and	r24, r20
 64a:	85 bb       	out	0x15, r24	; 21
 64c:	08 95       	ret
 64e:	42 b3       	in	r20, 0x12	; 18
 650:	21 e0       	ldi	r18, 0x01	; 1
 652:	30 e0       	ldi	r19, 0x00	; 0
 654:	b9 01       	movw	r22, r18
 656:	02 c0       	rjmp	.+4      	; 0x65c <DIO_WritePin+0xf6>
 658:	66 0f       	add	r22, r22
 65a:	77 1f       	adc	r23, r23
 65c:	8a 95       	dec	r24
 65e:	e2 f7       	brpl	.-8      	; 0x658 <DIO_WritePin+0xf2>
 660:	cb 01       	movw	r24, r22
 662:	80 95       	com	r24
 664:	84 23       	and	r24, r20
 666:	82 bb       	out	0x12, r24	; 18
 668:	08 95       	ret

0000066a <SPI_Init>:
 66a:	88 23       	and	r24, r24
 66c:	21 f0       	breq	.+8      	; 0x676 <SPI_Init+0xc>
 66e:	81 30       	cpi	r24, 0x01	; 1
 670:	19 f4       	brne	.+6      	; 0x678 <SPI_Init+0xe>
 672:	6c 98       	cbi	0x0d, 4	; 13
 674:	01 c0       	rjmp	.+2      	; 0x678 <SPI_Init+0xe>
 676:	6c 9a       	sbi	0x0d, 4	; 13
 678:	6e 9a       	sbi	0x0d, 6	; 13
 67a:	08 95       	ret

0000067c <spi_Send>:
 67c:	8f b9       	out	0x0f, r24	; 15
 67e:	08 95       	ret

00000680 <spi_resive>:
 680:	77 9b       	sbis	0x0e, 7	; 14
 682:	fe cf       	rjmp	.-4      	; 0x680 <spi_resive>
 684:	8f b1       	in	r24, 0x0f	; 15
 686:	08 95       	ret

00000688 <TIMER0_Init>:
 688:	81 30       	cpi	r24, 0x01	; 1
 68a:	59 f0       	breq	.+22     	; 0x6a2 <TIMER0_Init+0x1a>
 68c:	38 f0       	brcs	.+14     	; 0x69c <TIMER0_Init+0x14>
 68e:	82 30       	cpi	r24, 0x02	; 2
 690:	71 f0       	breq	.+28     	; 0x6ae <TIMER0_Init+0x26>
 692:	83 30       	cpi	r24, 0x03	; 3
 694:	91 f4       	brne	.+36     	; 0x6ba <TIMER0_Init+0x32>
 696:	83 b7       	in	r24, 0x33	; 51
 698:	80 64       	ori	r24, 0x40	; 64
 69a:	0b c0       	rjmp	.+22     	; 0x6b2 <TIMER0_Init+0x2a>
 69c:	83 b7       	in	r24, 0x33	; 51
 69e:	8f 7b       	andi	r24, 0xBF	; 191
 6a0:	02 c0       	rjmp	.+4      	; 0x6a6 <TIMER0_Init+0x1e>
 6a2:	83 b7       	in	r24, 0x33	; 51
 6a4:	80 64       	ori	r24, 0x40	; 64
 6a6:	83 bf       	out	0x33, r24	; 51
 6a8:	83 b7       	in	r24, 0x33	; 51
 6aa:	87 7f       	andi	r24, 0xF7	; 247
 6ac:	05 c0       	rjmp	.+10     	; 0x6b8 <TIMER0_Init+0x30>
 6ae:	83 b7       	in	r24, 0x33	; 51
 6b0:	8f 7b       	andi	r24, 0xBF	; 191
 6b2:	83 bf       	out	0x33, r24	; 51
 6b4:	83 b7       	in	r24, 0x33	; 51
 6b6:	88 60       	ori	r24, 0x08	; 8
 6b8:	83 bf       	out	0x33, r24	; 51
 6ba:	83 b7       	in	r24, 0x33	; 51
 6bc:	88 7f       	andi	r24, 0xF8	; 248
 6be:	83 bf       	out	0x33, r24	; 51
 6c0:	83 b7       	in	r24, 0x33	; 51
 6c2:	68 2b       	or	r22, r24
 6c4:	63 bf       	out	0x33, r22	; 51
 6c6:	08 95       	ret

000006c8 <TIMER0_OC0Mode>:
 6c8:	81 30       	cpi	r24, 0x01	; 1
 6ca:	49 f0       	breq	.+18     	; 0x6de <TIMER0_OC0Mode+0x16>
 6cc:	28 f0       	brcs	.+10     	; 0x6d8 <TIMER0_OC0Mode+0x10>
 6ce:	82 30       	cpi	r24, 0x02	; 2
 6d0:	61 f0       	breq	.+24     	; 0x6ea <TIMER0_OC0Mode+0x22>
 6d2:	83 30       	cpi	r24, 0x03	; 3
 6d4:	69 f0       	breq	.+26     	; 0x6f0 <TIMER0_OC0Mode+0x28>
 6d6:	08 95       	ret
 6d8:	83 b7       	in	r24, 0x33	; 51
 6da:	8f 7e       	andi	r24, 0xEF	; 239
 6dc:	02 c0       	rjmp	.+4      	; 0x6e2 <TIMER0_OC0Mode+0x1a>
 6de:	83 b7       	in	r24, 0x33	; 51
 6e0:	80 61       	ori	r24, 0x10	; 16
 6e2:	83 bf       	out	0x33, r24	; 51
 6e4:	83 b7       	in	r24, 0x33	; 51
 6e6:	8f 7d       	andi	r24, 0xDF	; 223
 6e8:	08 c0       	rjmp	.+16     	; 0x6fa <TIMER0_OC0Mode+0x32>
 6ea:	83 b7       	in	r24, 0x33	; 51
 6ec:	8f 7e       	andi	r24, 0xEF	; 239
 6ee:	02 c0       	rjmp	.+4      	; 0x6f4 <TIMER0_OC0Mode+0x2c>
 6f0:	83 b7       	in	r24, 0x33	; 51
 6f2:	80 61       	ori	r24, 0x10	; 16
 6f4:	83 bf       	out	0x33, r24	; 51
 6f6:	83 b7       	in	r24, 0x33	; 51
 6f8:	80 62       	ori	r24, 0x20	; 32
 6fa:	83 bf       	out	0x33, r24	; 51
 6fc:	08 95       	ret

000006fe <Timer1_Init>:
 6fe:	82 30       	cpi	r24, 0x02	; 2
 700:	d9 f0       	breq	.+54     	; 0x738 <Timer1_Init+0x3a>
 702:	50 f4       	brcc	.+20     	; 0x718 <Timer1_Init+0x1a>
 704:	88 23       	and	r24, r24
 706:	79 f0       	breq	.+30     	; 0x726 <Timer1_Init+0x28>
 708:	81 30       	cpi	r24, 0x01	; 1
 70a:	71 f5       	brne	.+92     	; 0x768 <Timer1_Init+0x6a>
 70c:	8f b5       	in	r24, 0x2f	; 47
 70e:	8e 7f       	andi	r24, 0xFE	; 254
 710:	8f bd       	out	0x2f, r24	; 47
 712:	8f b5       	in	r24, 0x2f	; 47
 714:	8d 7f       	andi	r24, 0xFD	; 253
 716:	21 c0       	rjmp	.+66     	; 0x75a <Timer1_Init+0x5c>
 718:	83 30       	cpi	r24, 0x03	; 3
 71a:	d1 f0       	breq	.+52     	; 0x750 <Timer1_Init+0x52>
 71c:	84 30       	cpi	r24, 0x04	; 4
 71e:	21 f5       	brne	.+72     	; 0x768 <Timer1_Init+0x6a>
 720:	8f b5       	in	r24, 0x2f	; 47
 722:	81 60       	ori	r24, 0x01	; 1
 724:	17 c0       	rjmp	.+46     	; 0x754 <Timer1_Init+0x56>
 726:	8f b5       	in	r24, 0x2f	; 47
 728:	8e 7f       	andi	r24, 0xFE	; 254
 72a:	8f bd       	out	0x2f, r24	; 47
 72c:	8f b5       	in	r24, 0x2f	; 47
 72e:	8d 7f       	andi	r24, 0xFD	; 253
 730:	8f bd       	out	0x2f, r24	; 47
 732:	8e b5       	in	r24, 0x2e	; 46
 734:	87 7f       	andi	r24, 0xF7	; 247
 736:	08 c0       	rjmp	.+16     	; 0x748 <Timer1_Init+0x4a>
 738:	8f b5       	in	r24, 0x2f	; 47
 73a:	8e 7f       	andi	r24, 0xFE	; 254
 73c:	8f bd       	out	0x2f, r24	; 47
 73e:	8f b5       	in	r24, 0x2f	; 47
 740:	8d 7f       	andi	r24, 0xFD	; 253
 742:	8f bd       	out	0x2f, r24	; 47
 744:	8e b5       	in	r24, 0x2e	; 46
 746:	88 60       	ori	r24, 0x08	; 8
 748:	8e bd       	out	0x2e, r24	; 46
 74a:	8e b5       	in	r24, 0x2e	; 46
 74c:	8f 7e       	andi	r24, 0xEF	; 239
 74e:	0b c0       	rjmp	.+22     	; 0x766 <Timer1_Init+0x68>
 750:	8f b5       	in	r24, 0x2f	; 47
 752:	8e 7f       	andi	r24, 0xFE	; 254
 754:	8f bd       	out	0x2f, r24	; 47
 756:	8f b5       	in	r24, 0x2f	; 47
 758:	82 60       	ori	r24, 0x02	; 2
 75a:	8f bd       	out	0x2f, r24	; 47
 75c:	8e b5       	in	r24, 0x2e	; 46
 75e:	88 60       	ori	r24, 0x08	; 8
 760:	8e bd       	out	0x2e, r24	; 46
 762:	8e b5       	in	r24, 0x2e	; 46
 764:	80 61       	ori	r24, 0x10	; 16
 766:	8e bd       	out	0x2e, r24	; 46
 768:	8e b5       	in	r24, 0x2e	; 46
 76a:	88 7f       	andi	r24, 0xF8	; 248
 76c:	8e bd       	out	0x2e, r24	; 46
 76e:	8e b5       	in	r24, 0x2e	; 46
 770:	68 2b       	or	r22, r24
 772:	6e bd       	out	0x2e, r22	; 46
 774:	08 95       	ret

00000776 <Timer1_OCRA1Mode>:
 776:	81 30       	cpi	r24, 0x01	; 1
 778:	49 f0       	breq	.+18     	; 0x78c <Timer1_OCRA1Mode+0x16>
 77a:	28 f0       	brcs	.+10     	; 0x786 <Timer1_OCRA1Mode+0x10>
 77c:	82 30       	cpi	r24, 0x02	; 2
 77e:	61 f0       	breq	.+24     	; 0x798 <Timer1_OCRA1Mode+0x22>
 780:	83 30       	cpi	r24, 0x03	; 3
 782:	69 f0       	breq	.+26     	; 0x79e <Timer1_OCRA1Mode+0x28>
 784:	08 95       	ret
 786:	8f b5       	in	r24, 0x2f	; 47
 788:	8f 7b       	andi	r24, 0xBF	; 191
 78a:	02 c0       	rjmp	.+4      	; 0x790 <Timer1_OCRA1Mode+0x1a>
 78c:	8f b5       	in	r24, 0x2f	; 47
 78e:	80 64       	ori	r24, 0x40	; 64
 790:	8f bd       	out	0x2f, r24	; 47
 792:	8f b5       	in	r24, 0x2f	; 47
 794:	8f 77       	andi	r24, 0x7F	; 127
 796:	08 c0       	rjmp	.+16     	; 0x7a8 <Timer1_OCRA1Mode+0x32>
 798:	8f b5       	in	r24, 0x2f	; 47
 79a:	8f 7b       	andi	r24, 0xBF	; 191
 79c:	02 c0       	rjmp	.+4      	; 0x7a2 <Timer1_OCRA1Mode+0x2c>
 79e:	8f b5       	in	r24, 0x2f	; 47
 7a0:	80 64       	ori	r24, 0x40	; 64
 7a2:	8f bd       	out	0x2f, r24	; 47
 7a4:	8f b5       	in	r24, 0x2f	; 47
 7a6:	80 68       	ori	r24, 0x80	; 128
 7a8:	8f bd       	out	0x2f, r24	; 47
 7aa:	08 95       	ret

000007ac <Timer1_OCRB1Mode>:
 7ac:	81 30       	cpi	r24, 0x01	; 1
 7ae:	49 f0       	breq	.+18     	; 0x7c2 <Timer1_OCRB1Mode+0x16>
 7b0:	28 f0       	brcs	.+10     	; 0x7bc <Timer1_OCRB1Mode+0x10>
 7b2:	82 30       	cpi	r24, 0x02	; 2
 7b4:	61 f0       	breq	.+24     	; 0x7ce <Timer1_OCRB1Mode+0x22>
 7b6:	83 30       	cpi	r24, 0x03	; 3
 7b8:	69 f0       	breq	.+26     	; 0x7d4 <Timer1_OCRB1Mode+0x28>
 7ba:	08 95       	ret
 7bc:	8f b5       	in	r24, 0x2f	; 47
 7be:	8f 7e       	andi	r24, 0xEF	; 239
 7c0:	02 c0       	rjmp	.+4      	; 0x7c6 <Timer1_OCRB1Mode+0x1a>
 7c2:	8f b5       	in	r24, 0x2f	; 47
 7c4:	80 61       	ori	r24, 0x10	; 16
 7c6:	8f bd       	out	0x2f, r24	; 47
 7c8:	8f b5       	in	r24, 0x2f	; 47
 7ca:	8f 7d       	andi	r24, 0xDF	; 223
 7cc:	08 c0       	rjmp	.+16     	; 0x7de <Timer1_OCRB1Mode+0x32>
 7ce:	8f b5       	in	r24, 0x2f	; 47
 7d0:	8f 7e       	andi	r24, 0xEF	; 239
 7d2:	02 c0       	rjmp	.+4      	; 0x7d8 <Timer1_OCRB1Mode+0x2c>
 7d4:	8f b5       	in	r24, 0x2f	; 47
 7d6:	80 61       	ori	r24, 0x10	; 16
 7d8:	8f bd       	out	0x2f, r24	; 47
 7da:	8f b5       	in	r24, 0x2f	; 47
 7dc:	80 62       	ori	r24, 0x20	; 32
 7de:	8f bd       	out	0x2f, r24	; 47
 7e0:	08 95       	ret

000007e2 <__vector_9>:
 7e2:	1f 92       	push	r1
 7e4:	0f 92       	push	r0
 7e6:	0f b6       	in	r0, 0x3f	; 63
 7e8:	0f 92       	push	r0
 7ea:	11 24       	eor	r1, r1
 7ec:	2f 93       	push	r18
 7ee:	3f 93       	push	r19
 7f0:	4f 93       	push	r20
 7f2:	5f 93       	push	r21
 7f4:	6f 93       	push	r22
 7f6:	7f 93       	push	r23
 7f8:	8f 93       	push	r24
 7fa:	9f 93       	push	r25
 7fc:	af 93       	push	r26
 7fe:	bf 93       	push	r27
 800:	ef 93       	push	r30
 802:	ff 93       	push	r31
 804:	e0 91 c9 00 	lds	r30, 0x00C9	; 0x8000c9 <Timer1_OVF_Fptr>
 808:	f0 91 ca 00 	lds	r31, 0x00CA	; 0x8000ca <Timer1_OVF_Fptr+0x1>
 80c:	30 97       	sbiw	r30, 0x00	; 0
 80e:	09 f0       	breq	.+2      	; 0x812 <__DATA_REGION_LENGTH__+0x12>
 810:	09 95       	icall
 812:	ff 91       	pop	r31
 814:	ef 91       	pop	r30
 816:	bf 91       	pop	r27
 818:	af 91       	pop	r26
 81a:	9f 91       	pop	r25
 81c:	8f 91       	pop	r24
 81e:	7f 91       	pop	r23
 820:	6f 91       	pop	r22
 822:	5f 91       	pop	r21
 824:	4f 91       	pop	r20
 826:	3f 91       	pop	r19
 828:	2f 91       	pop	r18
 82a:	0f 90       	pop	r0
 82c:	0f be       	out	0x3f, r0	; 63
 82e:	0f 90       	pop	r0
 830:	1f 90       	pop	r1
 832:	18 95       	reti

00000834 <__vector_7>:
 834:	1f 92       	push	r1
 836:	0f 92       	push	r0
 838:	0f b6       	in	r0, 0x3f	; 63
 83a:	0f 92       	push	r0
 83c:	11 24       	eor	r1, r1
 83e:	2f 93       	push	r18
 840:	3f 93       	push	r19
 842:	4f 93       	push	r20
 844:	5f 93       	push	r21
 846:	6f 93       	push	r22
 848:	7f 93       	push	r23
 84a:	8f 93       	push	r24
 84c:	9f 93       	push	r25
 84e:	af 93       	push	r26
 850:	bf 93       	push	r27
 852:	ef 93       	push	r30
 854:	ff 93       	push	r31
 856:	e0 91 c7 00 	lds	r30, 0x00C7	; 0x8000c7 <Timer1_OCA_Fptr>
 85a:	f0 91 c8 00 	lds	r31, 0x00C8	; 0x8000c8 <Timer1_OCA_Fptr+0x1>
 85e:	30 97       	sbiw	r30, 0x00	; 0
 860:	09 f0       	breq	.+2      	; 0x864 <__stack+0x5>
 862:	09 95       	icall
 864:	ff 91       	pop	r31
 866:	ef 91       	pop	r30
 868:	bf 91       	pop	r27
 86a:	af 91       	pop	r26
 86c:	9f 91       	pop	r25
 86e:	8f 91       	pop	r24
 870:	7f 91       	pop	r23
 872:	6f 91       	pop	r22
 874:	5f 91       	pop	r21
 876:	4f 91       	pop	r20
 878:	3f 91       	pop	r19
 87a:	2f 91       	pop	r18
 87c:	0f 90       	pop	r0
 87e:	0f be       	out	0x3f, r0	; 63
 880:	0f 90       	pop	r0
 882:	1f 90       	pop	r1
 884:	18 95       	reti

00000886 <__vector_8>:
 886:	1f 92       	push	r1
 888:	0f 92       	push	r0
 88a:	0f b6       	in	r0, 0x3f	; 63
 88c:	0f 92       	push	r0
 88e:	11 24       	eor	r1, r1
 890:	2f 93       	push	r18
 892:	3f 93       	push	r19
 894:	4f 93       	push	r20
 896:	5f 93       	push	r21
 898:	6f 93       	push	r22
 89a:	7f 93       	push	r23
 89c:	8f 93       	push	r24
 89e:	9f 93       	push	r25
 8a0:	af 93       	push	r26
 8a2:	bf 93       	push	r27
 8a4:	ef 93       	push	r30
 8a6:	ff 93       	push	r31
 8a8:	e0 91 c5 00 	lds	r30, 0x00C5	; 0x8000c5 <Timer1_OCB_Fptr>
 8ac:	f0 91 c6 00 	lds	r31, 0x00C6	; 0x8000c6 <Timer1_OCB_Fptr+0x1>
 8b0:	30 97       	sbiw	r30, 0x00	; 0
 8b2:	09 f0       	breq	.+2      	; 0x8b6 <__vector_8+0x30>
 8b4:	09 95       	icall
 8b6:	ff 91       	pop	r31
 8b8:	ef 91       	pop	r30
 8ba:	bf 91       	pop	r27
 8bc:	af 91       	pop	r26
 8be:	9f 91       	pop	r25
 8c0:	8f 91       	pop	r24
 8c2:	7f 91       	pop	r23
 8c4:	6f 91       	pop	r22
 8c6:	5f 91       	pop	r21
 8c8:	4f 91       	pop	r20
 8ca:	3f 91       	pop	r19
 8cc:	2f 91       	pop	r18
 8ce:	0f 90       	pop	r0
 8d0:	0f be       	out	0x3f, r0	; 63
 8d2:	0f 90       	pop	r0
 8d4:	1f 90       	pop	r1
 8d6:	18 95       	reti

000008d8 <__vector_6>:
 8d8:	1f 92       	push	r1
 8da:	0f 92       	push	r0
 8dc:	0f b6       	in	r0, 0x3f	; 63
 8de:	0f 92       	push	r0
 8e0:	11 24       	eor	r1, r1
 8e2:	2f 93       	push	r18
 8e4:	3f 93       	push	r19
 8e6:	4f 93       	push	r20
 8e8:	5f 93       	push	r21
 8ea:	6f 93       	push	r22
 8ec:	7f 93       	push	r23
 8ee:	8f 93       	push	r24
 8f0:	9f 93       	push	r25
 8f2:	af 93       	push	r26
 8f4:	bf 93       	push	r27
 8f6:	ef 93       	push	r30
 8f8:	ff 93       	push	r31
 8fa:	e0 91 c3 00 	lds	r30, 0x00C3	; 0x8000c3 <Timer1_ICU_Fptr>
 8fe:	f0 91 c4 00 	lds	r31, 0x00C4	; 0x8000c4 <Timer1_ICU_Fptr+0x1>
 902:	30 97       	sbiw	r30, 0x00	; 0
 904:	09 f0       	breq	.+2      	; 0x908 <__vector_6+0x30>
 906:	09 95       	icall
 908:	ff 91       	pop	r31
 90a:	ef 91       	pop	r30
 90c:	bf 91       	pop	r27
 90e:	af 91       	pop	r26
 910:	9f 91       	pop	r25
 912:	8f 91       	pop	r24
 914:	7f 91       	pop	r23
 916:	6f 91       	pop	r22
 918:	5f 91       	pop	r21
 91a:	4f 91       	pop	r20
 91c:	3f 91       	pop	r19
 91e:	2f 91       	pop	r18
 920:	0f 90       	pop	r0
 922:	0f be       	out	0x3f, r0	; 63
 924:	0f 90       	pop	r0
 926:	1f 90       	pop	r1
 928:	18 95       	reti

0000092a <UART_Init>:
 92a:	83 e3       	ldi	r24, 0x33	; 51
 92c:	89 b9       	out	0x09, r24	; 9
 92e:	59 98       	cbi	0x0b, 1	; 11
 930:	54 9a       	sbi	0x0a, 4	; 10
 932:	53 9a       	sbi	0x0a, 3	; 10
 934:	08 95       	ret

00000936 <UART_RX_InterruptEnable>:
 936:	57 9a       	sbi	0x0a, 7	; 10
 938:	08 95       	ret

0000093a <UART_TX_InterruptEnable>:
 93a:	56 9a       	sbi	0x0a, 6	; 10
 93c:	08 95       	ret

0000093e <UART_RX_SetCallBack>:
 93e:	90 93 ce 00 	sts	0x00CE, r25	; 0x8000ce <UART_RX_Fptr+0x1>
 942:	80 93 cd 00 	sts	0x00CD, r24	; 0x8000cd <UART_RX_Fptr>
 946:	08 95       	ret

00000948 <UART_TX_SetCallBack>:
 948:	90 93 cc 00 	sts	0x00CC, r25	; 0x8000cc <UART_TX_Fptr+0x1>
 94c:	80 93 cb 00 	sts	0x00CB, r24	; 0x8000cb <UART_TX_Fptr>
 950:	08 95       	ret

00000952 <UART_SendNoblock>:
 952:	8c b9       	out	0x0c, r24	; 12
 954:	08 95       	ret

00000956 <UART_ReceiveNoBlock>:
 956:	8c b1       	in	r24, 0x0c	; 12
 958:	08 95       	ret

0000095a <__vector_15>:
 95a:	1f 92       	push	r1
 95c:	0f 92       	push	r0
 95e:	0f b6       	in	r0, 0x3f	; 63
 960:	0f 92       	push	r0
 962:	11 24       	eor	r1, r1
 964:	2f 93       	push	r18
 966:	3f 93       	push	r19
 968:	4f 93       	push	r20
 96a:	5f 93       	push	r21
 96c:	6f 93       	push	r22
 96e:	7f 93       	push	r23
 970:	8f 93       	push	r24
 972:	9f 93       	push	r25
 974:	af 93       	push	r26
 976:	bf 93       	push	r27
 978:	ef 93       	push	r30
 97a:	ff 93       	push	r31
 97c:	e0 91 cb 00 	lds	r30, 0x00CB	; 0x8000cb <UART_TX_Fptr>
 980:	f0 91 cc 00 	lds	r31, 0x00CC	; 0x8000cc <UART_TX_Fptr+0x1>
 984:	30 97       	sbiw	r30, 0x00	; 0
 986:	09 f0       	breq	.+2      	; 0x98a <__vector_15+0x30>
 988:	09 95       	icall
 98a:	ff 91       	pop	r31
 98c:	ef 91       	pop	r30
 98e:	bf 91       	pop	r27
 990:	af 91       	pop	r26
 992:	9f 91       	pop	r25
 994:	8f 91       	pop	r24
 996:	7f 91       	pop	r23
 998:	6f 91       	pop	r22
 99a:	5f 91       	pop	r21
 99c:	4f 91       	pop	r20
 99e:	3f 91       	pop	r19
 9a0:	2f 91       	pop	r18
 9a2:	0f 90       	pop	r0
 9a4:	0f be       	out	0x3f, r0	; 63
 9a6:	0f 90       	pop	r0
 9a8:	1f 90       	pop	r1
 9aa:	18 95       	reti

000009ac <__vector_13>:
 9ac:	1f 92       	push	r1
 9ae:	0f 92       	push	r0
 9b0:	0f b6       	in	r0, 0x3f	; 63
 9b2:	0f 92       	push	r0
 9b4:	11 24       	eor	r1, r1
 9b6:	2f 93       	push	r18
 9b8:	3f 93       	push	r19
 9ba:	4f 93       	push	r20
 9bc:	5f 93       	push	r21
 9be:	6f 93       	push	r22
 9c0:	7f 93       	push	r23
 9c2:	8f 93       	push	r24
 9c4:	9f 93       	push	r25
 9c6:	af 93       	push	r26
 9c8:	bf 93       	push	r27
 9ca:	ef 93       	push	r30
 9cc:	ff 93       	push	r31
 9ce:	e0 91 cd 00 	lds	r30, 0x00CD	; 0x8000cd <UART_RX_Fptr>
 9d2:	f0 91 ce 00 	lds	r31, 0x00CE	; 0x8000ce <UART_RX_Fptr+0x1>
 9d6:	30 97       	sbiw	r30, 0x00	; 0
 9d8:	09 f0       	breq	.+2      	; 0x9dc <__vector_13+0x30>
 9da:	09 95       	icall
 9dc:	ff 91       	pop	r31
 9de:	ef 91       	pop	r30
 9e0:	bf 91       	pop	r27
 9e2:	af 91       	pop	r26
 9e4:	9f 91       	pop	r25
 9e6:	8f 91       	pop	r24
 9e8:	7f 91       	pop	r23
 9ea:	6f 91       	pop	r22
 9ec:	5f 91       	pop	r21
 9ee:	4f 91       	pop	r20
 9f0:	3f 91       	pop	r19
 9f2:	2f 91       	pop	r18
 9f4:	0f 90       	pop	r0
 9f6:	0f be       	out	0x3f, r0	; 63
 9f8:	0f 90       	pop	r0
 9fa:	1f 90       	pop	r1
 9fc:	18 95       	reti

000009fe <spi_send_string>:
 9fe:	0f 93       	push	r16
 a00:	1f 93       	push	r17
 a02:	cf 93       	push	r28
 a04:	df 93       	push	r29
 a06:	ec 01       	movw	r28, r24
 a08:	8c 01       	movw	r16, r24
 a0a:	0c 5e       	subi	r16, 0xEC	; 236
 a0c:	1f 4f       	sbci	r17, 0xFF	; 255
 a0e:	89 91       	ld	r24, Y+
 a10:	0e 94 3e 03 	call	0x67c	; 0x67c <spi_Send>
 a14:	8f e0       	ldi	r24, 0x0F	; 15
 a16:	97 e2       	ldi	r25, 0x27	; 39
 a18:	01 97       	sbiw	r24, 0x01	; 1
 a1a:	f1 f7       	brne	.-4      	; 0xa18 <spi_send_string+0x1a>
 a1c:	00 c0       	rjmp	.+0      	; 0xa1e <spi_send_string+0x20>
 a1e:	00 00       	nop
 a20:	c0 17       	cp	r28, r16
 a22:	d1 07       	cpc	r29, r17
 a24:	a1 f7       	brne	.-24     	; 0xa0e <spi_send_string+0x10>
 a26:	df 91       	pop	r29
 a28:	cf 91       	pop	r28
 a2a:	1f 91       	pop	r17
 a2c:	0f 91       	pop	r16
 a2e:	08 95       	ret

00000a30 <TX_Fuc>:
 a30:	80 91 60 00 	lds	r24, 0x0060	; 0x800060 <__DATA_REGION_ORIGIN__>
 a34:	e0 91 cf 00 	lds	r30, 0x00CF	; 0x8000cf <TXStr>
 a38:	f0 91 d0 00 	lds	r31, 0x00D0	; 0x8000d0 <TXStr+0x1>
 a3c:	e8 0f       	add	r30, r24
 a3e:	f1 1d       	adc	r31, r1
 a40:	80 81       	ld	r24, Z
 a42:	88 23       	and	r24, r24
 a44:	39 f0       	breq	.+14     	; 0xa54 <TX_Fuc+0x24>
 a46:	90 e0       	ldi	r25, 0x00	; 0
 a48:	0e 94 a9 04 	call	0x952	; 0x952 <UART_SendNoblock>
 a4c:	80 91 60 00 	lds	r24, 0x0060	; 0x800060 <__DATA_REGION_ORIGIN__>
 a50:	8f 5f       	subi	r24, 0xFF	; 255
 a52:	01 c0       	rjmp	.+2      	; 0xa56 <TX_Fuc+0x26>
 a54:	81 e0       	ldi	r24, 0x01	; 1
 a56:	80 93 60 00 	sts	0x0060, r24	; 0x800060 <__DATA_REGION_ORIGIN__>
 a5a:	08 95       	ret

00000a5c <UART_SendStringAsynch>:
 a5c:	cf 93       	push	r28
 a5e:	df 93       	push	r29
 a60:	ec 01       	movw	r28, r24
 a62:	88 81       	ld	r24, Y
 a64:	90 e0       	ldi	r25, 0x00	; 0
 a66:	0e 94 a9 04 	call	0x952	; 0x952 <UART_SendNoblock>
 a6a:	0e 94 9d 04 	call	0x93a	; 0x93a <UART_TX_InterruptEnable>
 a6e:	88 e1       	ldi	r24, 0x18	; 24
 a70:	95 e0       	ldi	r25, 0x05	; 5
 a72:	0e 94 a4 04 	call	0x948	; 0x948 <UART_TX_SetCallBack>
 a76:	d0 93 d0 00 	sts	0x00D0, r29	; 0x8000d0 <TXStr+0x1>
 a7a:	c0 93 cf 00 	sts	0x00CF, r28	; 0x8000cf <TXStr>
 a7e:	df 91       	pop	r29
 a80:	cf 91       	pop	r28
 a82:	08 95       	ret

00000a84 <_exit>:
 a84:	f8 94       	cli

00000a86 <__stop_program>:
 a86:	ff cf       	rjmp	.-2      	; 0xa86 <__stop_program>
